; ModuleID = 'source-C-CXX/1/809.c'
source_filename = "source-C-CXX/1/809.c"
target datalayout = "e-m:e-p270:32:32-p271:32:32-p272:64:64-i64:64-f80:128-n8:16:32:64-S128"
target triple = "x86_64-pc-linux-gnu"

@.str = private unnamed_addr constant [3 x i8] c"%d\00", align 1
@.str.1 = private unnamed_addr constant [5 x i8] c"%d%s\00", align 1
@.str.2 = private unnamed_addr constant [7 x i8] c"%c\0A%d\0A\00", align 1
@.str.3 = private unnamed_addr constant [4 x i8] c"%d\0A\00", align 1

; Function Attrs: nofree nounwind sspstrong uwtable
define dso_local void @main() local_unnamed_addr #0 {
  %1 = alloca i32, align 4
  %2 = alloca [1000 x i32], align 16
  %3 = alloca [26 x i32], align 16
  %4 = alloca [1000 x [20 x i8]], align 16
  %5 = bitcast i32* %1 to i8*
  call void @llvm.lifetime.start.p0i8(i64 4, i8* nonnull %5) #5
  %6 = bitcast [1000 x i32]* %2 to i8*
  call void @llvm.lifetime.start.p0i8(i64 4000, i8* nonnull %6) #5
  %7 = bitcast [26 x i32]* %3 to i8*
  call void @llvm.lifetime.start.p0i8(i64 104, i8* nonnull %7) #5
  call void @llvm.memset.p0i8.i64(i8* noundef nonnull align 16 dereferenceable(104) %7, i8 0, i64 104, i1 false)
  %8 = getelementptr inbounds [1000 x [20 x i8]], [1000 x [20 x i8]]* %4, i64 0, i64 0, i64 0
  call void @llvm.lifetime.start.p0i8(i64 20000, i8* nonnull %8) #5
  %9 = call i32 (i8*, ...) @__isoc99_scanf(i8* getelementptr inbounds ([3 x i8], [3 x i8]* @.str, i64 0, i64 0), i32* nonnull %1)
  %10 = load i32, i32* %1, align 4, !tbaa !5
  %11 = icmp sgt i32 %10, 0
  br i1 %11, label %145, label %12

12:                                               ; preds = %189, %0
  %13 = getelementptr inbounds [26 x i32], [26 x i32]* %3, i64 0, i64 0
  %14 = load i32, i32* %13, align 16, !tbaa !5
  %15 = icmp sgt i32 %14, 0
  %16 = select i1 %15, i32 %14, i32 0
  %17 = getelementptr inbounds [26 x i32], [26 x i32]* %3, i64 0, i64 1
  %18 = load i32, i32* %17, align 4, !tbaa !5
  %19 = icmp sgt i32 %18, %16
  %20 = select i1 %19, i32 %18, i32 %16
  %21 = getelementptr inbounds [26 x i32], [26 x i32]* %3, i64 0, i64 2
  %22 = load i32, i32* %21, align 8, !tbaa !5
  %23 = icmp sgt i32 %22, %20
  %24 = select i1 %23, i32 %22, i32 %20
  %25 = getelementptr inbounds [26 x i32], [26 x i32]* %3, i64 0, i64 3
  %26 = load i32, i32* %25, align 4, !tbaa !5
  %27 = icmp sgt i32 %26, %24
  %28 = select i1 %27, i32 %26, i32 %24
  %29 = getelementptr inbounds [26 x i32], [26 x i32]* %3, i64 0, i64 4
  %30 = load i32, i32* %29, align 16, !tbaa !5
  %31 = icmp sgt i32 %30, %28
  %32 = select i1 %31, i32 %30, i32 %28
  %33 = getelementptr inbounds [26 x i32], [26 x i32]* %3, i64 0, i64 5
  %34 = load i32, i32* %33, align 4, !tbaa !5
  %35 = icmp sgt i32 %34, %32
  %36 = select i1 %35, i32 %34, i32 %32
  %37 = getelementptr inbounds [26 x i32], [26 x i32]* %3, i64 0, i64 6
  %38 = load i32, i32* %37, align 8, !tbaa !5
  %39 = icmp sgt i32 %38, %36
  %40 = select i1 %39, i32 %38, i32 %36
  %41 = getelementptr inbounds [26 x i32], [26 x i32]* %3, i64 0, i64 7
  %42 = load i32, i32* %41, align 4, !tbaa !5
  %43 = icmp sgt i32 %42, %40
  %44 = select i1 %43, i32 %42, i32 %40
  %45 = getelementptr inbounds [26 x i32], [26 x i32]* %3, i64 0, i64 8
  %46 = load i32, i32* %45, align 16, !tbaa !5
  %47 = icmp sgt i32 %46, %44
  %48 = select i1 %47, i32 %46, i32 %44
  %49 = getelementptr inbounds [26 x i32], [26 x i32]* %3, i64 0, i64 9
  %50 = load i32, i32* %49, align 4, !tbaa !5
  %51 = icmp sgt i32 %50, %48
  %52 = select i1 %51, i32 %50, i32 %48
  %53 = getelementptr inbounds [26 x i32], [26 x i32]* %3, i64 0, i64 10
  %54 = load i32, i32* %53, align 8, !tbaa !5
  %55 = icmp sgt i32 %54, %52
  %56 = select i1 %55, i32 %54, i32 %52
  %57 = getelementptr inbounds [26 x i32], [26 x i32]* %3, i64 0, i64 11
  %58 = load i32, i32* %57, align 4, !tbaa !5
  %59 = icmp sgt i32 %58, %56
  %60 = select i1 %59, i32 %58, i32 %56
  %61 = getelementptr inbounds [26 x i32], [26 x i32]* %3, i64 0, i64 12
  %62 = load i32, i32* %61, align 16, !tbaa !5
  %63 = icmp sgt i32 %62, %60
  %64 = select i1 %63, i32 %62, i32 %60
  %65 = getelementptr inbounds [26 x i32], [26 x i32]* %3, i64 0, i64 13
  %66 = load i32, i32* %65, align 4, !tbaa !5
  %67 = icmp sgt i32 %66, %64
  %68 = select i1 %67, i32 %66, i32 %64
  %69 = getelementptr inbounds [26 x i32], [26 x i32]* %3, i64 0, i64 14
  %70 = load i32, i32* %69, align 8, !tbaa !5
  %71 = icmp sgt i32 %70, %68
  %72 = select i1 %71, i32 %70, i32 %68
  %73 = getelementptr inbounds [26 x i32], [26 x i32]* %3, i64 0, i64 15
  %74 = load i32, i32* %73, align 4, !tbaa !5
  %75 = icmp sgt i32 %74, %72
  %76 = select i1 %75, i32 %74, i32 %72
  %77 = getelementptr inbounds [26 x i32], [26 x i32]* %3, i64 0, i64 16
  %78 = load i32, i32* %77, align 16, !tbaa !5
  %79 = icmp sgt i32 %78, %76
  %80 = select i1 %79, i32 %78, i32 %76
  %81 = getelementptr inbounds [26 x i32], [26 x i32]* %3, i64 0, i64 17
  %82 = load i32, i32* %81, align 4, !tbaa !5
  %83 = icmp sgt i32 %82, %80
  %84 = select i1 %83, i32 %82, i32 %80
  %85 = getelementptr inbounds [26 x i32], [26 x i32]* %3, i64 0, i64 18
  %86 = load i32, i32* %85, align 8, !tbaa !5
  %87 = icmp sgt i32 %86, %84
  %88 = select i1 %87, i32 %86, i32 %84
  %89 = getelementptr inbounds [26 x i32], [26 x i32]* %3, i64 0, i64 19
  %90 = load i32, i32* %89, align 4, !tbaa !5
  %91 = icmp sgt i32 %90, %88
  %92 = select i1 %91, i32 %90, i32 %88
  %93 = getelementptr inbounds [26 x i32], [26 x i32]* %3, i64 0, i64 20
  %94 = load i32, i32* %93, align 16, !tbaa !5
  %95 = icmp sgt i32 %94, %92
  %96 = select i1 %95, i32 %94, i32 %92
  %97 = getelementptr inbounds [26 x i32], [26 x i32]* %3, i64 0, i64 21
  %98 = load i32, i32* %97, align 4, !tbaa !5
  %99 = icmp sgt i32 %98, %96
  %100 = select i1 %99, i32 %98, i32 %96
  %101 = getelementptr inbounds [26 x i32], [26 x i32]* %3, i64 0, i64 22
  %102 = load i32, i32* %101, align 8, !tbaa !5
  %103 = icmp sgt i32 %102, %100
  %104 = select i1 %103, i32 %102, i32 %100
  %105 = getelementptr inbounds [26 x i32], [26 x i32]* %3, i64 0, i64 23
  %106 = load i32, i32* %105, align 4, !tbaa !5
  %107 = icmp sgt i32 %106, %104
  %108 = select i1 %107, i32 %106, i32 %104
  %109 = getelementptr inbounds [26 x i32], [26 x i32]* %3, i64 0, i64 24
  %110 = load i32, i32* %109, align 16, !tbaa !5
  %111 = icmp sgt i32 %110, %108
  %112 = select i1 %111, i32 %110, i32 %108
  %113 = getelementptr inbounds [26 x i32], [26 x i32]* %3, i64 0, i64 25
  %114 = load i32, i32* %113, align 4, !tbaa !5
  %115 = icmp sgt i32 %114, %112
  %116 = select i1 %115, i32 %114, i32 %112
  %117 = select i1 %19, i32 66, i32 65
  %118 = select i1 %23, i32 67, i32 %117
  %119 = select i1 %27, i32 68, i32 %118
  %120 = select i1 %31, i32 69, i32 %119
  %121 = select i1 %35, i32 70, i32 %120
  %122 = select i1 %39, i32 71, i32 %121
  %123 = select i1 %43, i32 72, i32 %122
  %124 = select i1 %47, i32 73, i32 %123
  %125 = select i1 %51, i32 74, i32 %124
  %126 = select i1 %55, i32 75, i32 %125
  %127 = select i1 %59, i32 76, i32 %126
  %128 = select i1 %63, i32 77, i32 %127
  %129 = select i1 %67, i32 78, i32 %128
  %130 = select i1 %71, i32 79, i32 %129
  %131 = select i1 %75, i32 80, i32 %130
  %132 = select i1 %79, i32 81, i32 %131
  %133 = select i1 %83, i32 82, i32 %132
  %134 = select i1 %87, i32 83, i32 %133
  %135 = select i1 %91, i32 84, i32 %134
  %136 = select i1 %95, i32 85, i32 %135
  %137 = select i1 %99, i32 86, i32 %136
  %138 = select i1 %103, i32 87, i32 %137
  %139 = select i1 %107, i32 88, i32 %138
  %140 = select i1 %111, i32 89, i32 %139
  %141 = select i1 %115, i32 90, i32 %140
  %142 = call i32 (i8*, ...) @printf(i8* nonnull dereferenceable(1) getelementptr inbounds ([7 x i8], [7 x i8]* @.str.2, i64 0, i64 0), i32 %141, i32 %116)
  %143 = load i32, i32* %1, align 4, !tbaa !5
  %144 = icmp sgt i32 %143, 0
  br i1 %144, label %194, label %210

145:                                              ; preds = %0, %189
  %146 = phi i64 [ %190, %189 ], [ 0, %0 ]
  %147 = getelementptr inbounds [1000 x i32], [1000 x i32]* %2, i64 0, i64 %146
  %148 = getelementptr inbounds [1000 x [20 x i8]], [1000 x [20 x i8]]* %4, i64 0, i64 %146, i64 0
  %149 = call i32 (i8*, ...) @__isoc99_scanf(i8* getelementptr inbounds ([5 x i8], [5 x i8]* @.str.1, i64 0, i64 0), i32* nonnull %147, i8* nonnull %148)
  %150 = call i64 @strlen(i8* noundef nonnull %148) #6
  %151 = icmp eq i64 %150, 0
  br i1 %151, label %189, label %152

152:                                              ; preds = %145
  %153 = and i64 %150, 1
  %154 = icmp eq i64 %150, 1
  br i1 %154, label %178, label %155

155:                                              ; preds = %152
  %156 = and i64 %150, -2
  br label %157

157:                                              ; preds = %157, %155
  %158 = phi i64 [ 0, %155 ], [ %175, %157 ]
  %159 = phi i64 [ %156, %155 ], [ %176, %157 ]
  %160 = getelementptr inbounds [1000 x [20 x i8]], [1000 x [20 x i8]]* %4, i64 0, i64 %146, i64 %158
  %161 = load i8, i8* %160, align 2, !tbaa !9
  %162 = sext i8 %161 to i64
  %163 = add nsw i64 %162, -65
  %164 = getelementptr inbounds [26 x i32], [26 x i32]* %3, i64 0, i64 %163
  %165 = load i32, i32* %164, align 4, !tbaa !5
  %166 = add nsw i32 %165, 1
  store i32 %166, i32* %164, align 4, !tbaa !5
  %167 = or i64 %158, 1
  %168 = getelementptr inbounds [1000 x [20 x i8]], [1000 x [20 x i8]]* %4, i64 0, i64 %146, i64 %167
  %169 = load i8, i8* %168, align 1, !tbaa !9
  %170 = sext i8 %169 to i64
  %171 = add nsw i64 %170, -65
  %172 = getelementptr inbounds [26 x i32], [26 x i32]* %3, i64 0, i64 %171
  %173 = load i32, i32* %172, align 4, !tbaa !5
  %174 = add nsw i32 %173, 1
  store i32 %174, i32* %172, align 4, !tbaa !5
  %175 = add nuw nsw i64 %158, 2
  %176 = add i64 %159, -2
  %177 = icmp eq i64 %176, 0
  br i1 %177, label %178, label %157, !llvm.loop !10

178:                                              ; preds = %157, %152
  %179 = phi i64 [ 0, %152 ], [ %175, %157 ]
  %180 = icmp eq i64 %153, 0
  br i1 %180, label %189, label %181

181:                                              ; preds = %178
  %182 = getelementptr inbounds [1000 x [20 x i8]], [1000 x [20 x i8]]* %4, i64 0, i64 %146, i64 %179
  %183 = load i8, i8* %182, align 1, !tbaa !9
  %184 = sext i8 %183 to i64
  %185 = add nsw i64 %184, -65
  %186 = getelementptr inbounds [26 x i32], [26 x i32]* %3, i64 0, i64 %185
  %187 = load i32, i32* %186, align 4, !tbaa !5
  %188 = add nsw i32 %187, 1
  store i32 %188, i32* %186, align 4, !tbaa !5
  br label %189

189:                                              ; preds = %181, %178, %145
  %190 = add nuw nsw i64 %146, 1
  %191 = load i32, i32* %1, align 4, !tbaa !5
  %192 = sext i32 %191 to i64
  %193 = icmp slt i64 %190, %192
  br i1 %193, label %145, label %12, !llvm.loop !12

194:                                              ; preds = %12, %205
  %195 = phi i32 [ %206, %205 ], [ %143, %12 ]
  %196 = phi i64 [ %207, %205 ], [ 0, %12 ]
  %197 = getelementptr inbounds [1000 x [20 x i8]], [1000 x [20 x i8]]* %4, i64 0, i64 %196, i64 0
  %198 = call i8* @strchr(i8* noundef nonnull %197, i32 %141) #6
  %199 = icmp eq i8* %198, null
  br i1 %199, label %205, label %200

200:                                              ; preds = %194
  %201 = getelementptr inbounds [1000 x i32], [1000 x i32]* %2, i64 0, i64 %196
  %202 = load i32, i32* %201, align 4, !tbaa !5
  %203 = call i32 (i8*, ...) @printf(i8* nonnull dereferenceable(1) getelementptr inbounds ([4 x i8], [4 x i8]* @.str.3, i64 0, i64 0), i32 %202)
  %204 = load i32, i32* %1, align 4, !tbaa !5
  br label %205

205:                                              ; preds = %194, %200
  %206 = phi i32 [ %195, %194 ], [ %204, %200 ]
  %207 = add nuw nsw i64 %196, 1
  %208 = sext i32 %206 to i64
  %209 = icmp slt i64 %207, %208
  br i1 %209, label %194, label %210, !llvm.loop !13

210:                                              ; preds = %205, %12
  call void @llvm.lifetime.end.p0i8(i64 20000, i8* nonnull %8) #5
  call void @llvm.lifetime.end.p0i8(i64 104, i8* nonnull %7) #5
  call void @llvm.lifetime.end.p0i8(i64 4000, i8* nonnull %6) #5
  call void @llvm.lifetime.end.p0i8(i64 4, i8* nonnull %5) #5
  ret void
}

; Function Attrs: argmemonly mustprogress nofree nosync nounwind willreturn
declare void @llvm.lifetime.start.p0i8(i64 immarg, i8* nocapture) #1

; Function Attrs: argmemonly mustprogress nofree nounwind willreturn writeonly
declare void @llvm.memset.p0i8.i64(i8* nocapture writeonly, i8, i64, i1 immarg) #2

; Function Attrs: nofree nounwind
declare noundef i32 @__isoc99_scanf(i8* nocapture noundef readonly, ...) local_unnamed_addr #3

; Function Attrs: argmemonly mustprogress nofree nounwind readonly willreturn
declare i64 @strlen(i8* nocapture) local_unnamed_addr #4

; Function Attrs: nofree nounwind
declare noundef i32 @printf(i8* nocapture noundef readonly, ...) local_unnamed_addr #3

; Function Attrs: argmemonly mustprogress nofree nounwind readonly willreturn
declare i8* @strchr(i8*, i32) local_unnamed_addr #4

; Function Attrs: argmemonly mustprogress nofree nosync nounwind willreturn
declare void @llvm.lifetime.end.p0i8(i64 immarg, i8* nocapture) #1


!llvm.module.flags = !{!0, !1, !2, !3}
!llvm.ident = !{!4}

!0 = !{i32 1, !"wchar_size", i32 4}
!1 = !{i32 7, !"PIC Level", i32 2}
!2 = !{i32 7, !"PIE Level", i32 2}
!3 = !{i32 7, !"uwtable", i32 1}
!4 = !{!"clang version 13.0.0"}
!5 = !{!6, !6, i64 0}
!6 = !{!"int", !7, i64 0}
!7 = !{!"omnipotent char", !8, i64 0}
!8 = !{!"Simple C/C++ TBAA"}
!9 = !{!7, !7, i64 0}
!10 = distinct !{!10, !11}
!11 = !{!"llvm.loop.mustprogress"}
!12 = distinct !{!12, !11}
!13 = distinct !{!13, !11}
